target datalayout = "e-m:e-p270:32:32-p271:32:32-p272:64:64-i64:64-i128:128-f80:128-n8:16:32:64-S128"
target triple = "x86_64-unknown-linux-gnu"

%"class.EA::UnitTest::TestCollection" = type { ptr, %"class.eastl::vector" }
%"class.eastl::vector" = type { %"struct.eastl::VectorBase" }
%"struct.eastl::VectorBase" = type { ptr, ptr, %"class.eastl::compressed_pair.0" }
%"class.eastl::compressed_pair.0" = type { %"class.eastl::compressed_pair_imp.1" }
%"class.eastl::compressed_pair_imp.1" = type { ptr }
%"class.eastl::reverse_iterator" = type { ptr }
%"struct.EA::UnitTest::TestCollection::TestInfo" = type { ptr, i8 }

; Function Attrs: mustprogress nounwind uwtable
define linkonce_odr dso_local noundef nonnull align 8 dereferenceable(8) ptr @_ZN5eastl19compressed_pair_impIPN2EA8UnitTest14TestCollection8TestInfoENS_9allocatorELi2EE5firstEv(ptr noundef nonnull align 8 dereferenceable(8) %this) #1 comdat align 2 {
entry:
  %this.addr = alloca ptr, align 8
  store ptr %this, ptr %this.addr, align 8
  %this1 = load ptr, ptr %this.addr, align 8
  %mFirst = getelementptr inbounds %"class.eastl::compressed_pair_imp.1", ptr %this1, i32 0, i32 0
  ret ptr %mFirst
}

; Function Attrs: mustprogress nounwind uwtable
define linkonce_odr dso_local noundef nonnull align 1 dereferenceable(1) ptr @_ZN5eastl19compressed_pair_impIPN2EA8UnitTest14TestCollection8TestInfoENS_9allocatorELi2EE6secondEv(ptr noundef nonnull align 8 dereferenceable(8) %this) #1 comdat align 2 {
entry:
  %this.addr = alloca ptr, align 8
  store ptr %this, ptr %this.addr, align 8
  %this1 = load ptr, ptr %this.addr, align 8
  ret ptr %this1
}

; Function Attrs: mustprogress uwtable
define linkonce_odr dso_local noundef nonnull align 8 dereferenceable(8) ptr @_ZN5eastl15compressed_pairIPN2EA8UnitTest14TestCollection8TestInfoENS_9allocatorEE5firstEv(ptr noundef nonnull align 8 dereferenceable(8) %this) #2 comdat align 2 {
entry:
  %this.addr = alloca ptr, align 8
  store ptr %this, ptr %this.addr, align 8
  %this1 = load ptr, ptr %this.addr, align 8
  %call = call noundef nonnull align 8 dereferenceable(8) ptr @_ZN5eastl19compressed_pair_impIPN2EA8UnitTest14TestCollection8TestInfoENS_9allocatorELi2EE5firstEv(ptr noundef nonnull align 8 dereferenceable(8) %this1)
  ret ptr %call
}

; Function Attrs: mustprogress uwtable
define linkonce_odr dso_local noundef nonnull align 1 dereferenceable(1) ptr @_ZN5eastl15compressed_pairIPN2EA8UnitTest14TestCollection8TestInfoENS_9allocatorEE6secondEv(ptr noundef nonnull align 8 dereferenceable(8) %this) #2 comdat align 2 {
entry:
  %this.addr = alloca ptr, align 8
  store ptr %this, ptr %this.addr, align 8
  %this1 = load ptr, ptr %this.addr, align 8
  %call = call noundef nonnull align 1 dereferenceable(1) ptr @_ZN5eastl19compressed_pair_impIPN2EA8UnitTest14TestCollection8TestInfoENS_9allocatorELi2EE6secondEv(ptr noundef nonnull align 8 dereferenceable(8) %this1)
  ret ptr %call
}

; Function Attrs: mustprogress nounwind uwtable
define linkonce_odr dso_local void @_ZN5eastl9allocator10deallocateEPvm(ptr noundef nonnull align 1 dereferenceable(1) %this, ptr noundef %p, i64 noundef %0) #1 comdat align 2 {
entry:
  %this.addr = alloca ptr, align 8
  %p.addr = alloca ptr, align 8
  %.addr = alloca i64, align 8
  store ptr %this, ptr %this.addr, align 8
  store ptr %p, ptr %p.addr, align 8
  store i64 %0, ptr %.addr, align 8
  %1 = load ptr, ptr %p.addr, align 8
  %isnull = icmp eq ptr %1, null
  br i1 %isnull, label %delete.end, label %delete.notnull

delete.notnull:                                   ; preds = %entry
  call void @_ZdaPv(ptr noundef %1) #15
  br label %delete.end

delete.end:                                       ; preds = %delete.notnull, %entry
  ret void
}

; Function Attrs: mustprogress nounwind uwtable
define linkonce_odr dso_local noundef nonnull align 8 dereferenceable(8) ptr @_ZN5eastl10VectorBaseIN2EA8UnitTest14TestCollection8TestInfoENS_9allocatorEE19internalCapacityPtrEv(ptr noundef nonnull align 8 dereferenceable(24) %this) #1 comdat align 2 personality ptr @__gxx_personality_v0 {
entry:
  %this.addr = alloca ptr, align 8
  store ptr %this, ptr %this.addr, align 8
  %this1 = load ptr, ptr %this.addr, align 8
  %mCapacityAllocator = getelementptr inbounds %"struct.eastl::VectorBase", ptr %this1, i32 0, i32 2
  %call = invoke noundef nonnull align 8 dereferenceable(8) ptr @_ZN5eastl15compressed_pairIPN2EA8UnitTest14TestCollection8TestInfoENS_9allocatorEE5firstEv(ptr noundef nonnull align 8 dereferenceable(8) %mCapacityAllocator)
          to label %invoke.cont unwind label %terminate.lpad

invoke.cont:                                      ; preds = %entry
  ret ptr %call

terminate.lpad:                                   ; preds = %entry
  %0 = landingpad { ptr, i32 }
          catch ptr null
  %1 = extractvalue { ptr, i32 } %0, 0
  call void @__clang_call_terminate(ptr %1) #17
  unreachable
}

; Function Attrs: mustprogress nounwind uwtable
define linkonce_odr dso_local noundef nonnull align 1 dereferenceable(1) ptr @_ZN5eastl10VectorBaseIN2EA8UnitTest14TestCollection8TestInfoENS_9allocatorEE17internalAllocatorEv(ptr noundef nonnull align 8 dereferenceable(24) %this) #1 comdat align 2 personality ptr @__gxx_personality_v0 {
entry:
  %this.addr = alloca ptr, align 8
  store ptr %this, ptr %this.addr, align 8
  %this1 = load ptr, ptr %this.addr, align 8
  %mCapacityAllocator = getelementptr inbounds %"struct.eastl::VectorBase", ptr %this1, i32 0, i32 2
  %call = invoke noundef nonnull align 1 dereferenceable(1) ptr @_ZN5eastl15compressed_pairIPN2EA8UnitTest14TestCollection8TestInfoENS_9allocatorEE6secondEv(ptr noundef nonnull align 8 dereferenceable(8) %mCapacityAllocator)
          to label %invoke.cont unwind label %terminate.lpad

invoke.cont:                                      ; preds = %entry
  ret ptr %call

terminate.lpad:                                   ; preds = %entry
  %0 = landingpad { ptr, i32 }
          catch ptr null
  %1 = extractvalue { ptr, i32 } %0, 0
  call void @__clang_call_terminate(ptr %1) #17
  unreachable
}

; Function Attrs: mustprogress nounwind uwtable
define linkonce_odr dso_local void @_ZN5eastl13destruct_implIPN2EA8UnitTest14TestCollection8TestInfoEEEvT_S6_NS_17integral_constantIbLb1EEE(ptr noundef %0, ptr noundef %1) #1 comdat {
entry:
  %.addr = alloca ptr, align 8
  %.addr1 = alloca ptr, align 8
  store ptr %0, ptr %.addr, align 8
  store ptr %1, ptr %.addr1, align 8
  ret void
}

; Function Attrs: mustprogress nounwind uwtable
define linkonce_odr dso_local void @_ZN5eastl10VectorBaseIN2EA8UnitTest14TestCollection8TestInfoENS_9allocatorEED2Ev(ptr noundef nonnull align 8 dereferenceable(24) %this) unnamed_addr #1 comdat align 2 {
entry:
  %this.addr = alloca ptr, align 8
  store ptr %this, ptr %this.addr, align 8
  %this1 = load ptr, ptr %this.addr, align 8
  %mpBegin = getelementptr inbounds %"struct.eastl::VectorBase", ptr %this1, i32 0, i32 0
  %0 = load ptr, ptr %mpBegin, align 8
  %tobool = icmp ne ptr %0, null
  br i1 %tobool, label %if.then, label %if.end

if.then:                                          ; preds = %entry
  %call = call noundef nonnull align 1 dereferenceable(1) ptr @_ZN5eastl10VectorBaseIN2EA8UnitTest14TestCollection8TestInfoENS_9allocatorEE17internalAllocatorEv(ptr noundef nonnull align 8 dereferenceable(24) %this1) #13
  %mpBegin2 = getelementptr inbounds %"struct.eastl::VectorBase", ptr %this1, i32 0, i32 0
  %1 = load ptr, ptr %mpBegin2, align 8
  %call3 = call noundef nonnull align 8 dereferenceable(8) ptr @_ZN5eastl10VectorBaseIN2EA8UnitTest14TestCollection8TestInfoENS_9allocatorEE19internalCapacityPtrEv(ptr noundef nonnull align 8 dereferenceable(24) %this1) #13
  %2 = load ptr, ptr %call3, align 8
  %mpBegin4 = getelementptr inbounds %"struct.eastl::VectorBase", ptr %this1, i32 0, i32 0
  %3 = load ptr, ptr %mpBegin4, align 8
  %sub.ptr.lhs.cast = ptrtoint ptr %2 to i64
  %sub.ptr.rhs.cast = ptrtoint ptr %3 to i64
  %sub.ptr.sub = sub i64 %sub.ptr.lhs.cast, %sub.ptr.rhs.cast
  %sub.ptr.div = sdiv exact i64 %sub.ptr.sub, 16
  %mul = mul i64 %sub.ptr.div, 16
  call void @_ZN5eastl9allocator10deallocateEPvm(ptr noundef nonnull align 1 dereferenceable(1) %call, ptr noundef %1, i64 noundef %mul)
  br label %if.end

if.end:                                           ; preds = %if.then, %entry
  ret void
}

; Function Attrs: mustprogress uwtable
define linkonce_odr dso_local void @_ZN5eastl8destructIPN2EA8UnitTest14TestCollection8TestInfoEEEvT_S6_(ptr noundef %first, ptr noundef %last) #2 comdat {
entry:
  %first.addr = alloca ptr, align 8
  %last.addr = alloca ptr, align 8
  store ptr %first, ptr %first.addr, align 8
  store ptr %last, ptr %last.addr, align 8
  %0 = load ptr, ptr %first.addr, align 8
  %1 = load ptr, ptr %last.addr, align 8
  call void @_ZN5eastl13destruct_implIPN2EA8UnitTest14TestCollection8TestInfoEEEvT_S6_NS_17integral_constantIbLb1EEE(ptr noundef %0, ptr noundef %1)
  ret void
}

; Function Attrs: mustprogress nounwind uwtable
define linkonce_odr dso_local void @_ZN5eastl16reverse_iteratorIPN2EA8UnitTest14TestCollection8TestInfoEEC2ES5_(ptr noundef nonnull align 8 dereferenceable(8) %this, ptr noundef %i) unnamed_addr #1 comdat align 2 {
entry:
  %this.addr = alloca ptr, align 8
  %i.addr = alloca ptr, align 8
  store ptr %this, ptr %this.addr, align 8
  store ptr %i, ptr %i.addr, align 8
  %this1 = load ptr, ptr %this.addr, align 8
  %mIterator = getelementptr inbounds %"class.eastl::reverse_iterator", ptr %this1, i32 0, i32 0
  %0 = load ptr, ptr %i.addr, align 8
  store ptr %0, ptr %mIterator, align 8
  ret void
}

; Function Attrs: mustprogress nounwind uwtable
define linkonce_odr dso_local void @_ZN5eastl6vectorIN2EA8UnitTest14TestCollection8TestInfoENS_9allocatorEED2Ev(ptr noundef nonnull align 8 dereferenceable(24) %this) unnamed_addr #1 comdat align 2 personality ptr @__gxx_personality_v0 {
entry:
  %this.addr = alloca ptr, align 8
  store ptr %this, ptr %this.addr, align 8
  %this1 = load ptr, ptr %this.addr, align 8
  %mpBegin = getelementptr inbounds %"struct.eastl::VectorBase", ptr %this1, i32 0, i32 0
  %0 = load ptr, ptr %mpBegin, align 8
  %mpEnd = getelementptr inbounds %"struct.eastl::VectorBase", ptr %this1, i32 0, i32 1
  %1 = load ptr, ptr %mpEnd, align 8
  invoke void @_ZN5eastl8destructIPN2EA8UnitTest14TestCollection8TestInfoEEEvT_S6_(ptr noundef %0, ptr noundef %1)
          to label %invoke.cont unwind label %terminate.lpad

invoke.cont:                                      ; preds = %entry
  call void @_ZN5eastl10VectorBaseIN2EA8UnitTest14TestCollection8TestInfoENS_9allocatorEED2Ev(ptr noundef nonnull align 8 dereferenceable(24) %this1) #13
  ret void

terminate.lpad:                                   ; preds = %entry
  %2 = landingpad { ptr, i32 }
          catch ptr null
  %3 = extractvalue { ptr, i32 } %2, 0
  call void @__clang_call_terminate(ptr %3) #17
  unreachable
}

; Function Attrs: mustprogress nounwind uwtable
define linkonce_odr dso_local noundef nonnull align 8 dereferenceable(16) ptr @_ZNK5eastl16reverse_iteratorIPN2EA8UnitTest14TestCollection8TestInfoEEdeEv(ptr noundef nonnull align 8 dereferenceable(8) %this) #1 comdat align 2 {
entry:
  %this.addr = alloca ptr, align 8
  %i = alloca ptr, align 8
  store ptr %this, ptr %this.addr, align 8
  %this1 = load ptr, ptr %this.addr, align 8
  %mIterator = getelementptr inbounds %"class.eastl::reverse_iterator", ptr %this1, i32 0, i32 0
  %0 = load ptr, ptr %mIterator, align 8
  store ptr %0, ptr %i, align 8
  %1 = load ptr, ptr %i, align 8
  %incdec.ptr = getelementptr inbounds %"struct.EA::UnitTest::TestCollection::TestInfo", ptr %1, i32 -1
  store ptr %incdec.ptr, ptr %i, align 8
  ret ptr %incdec.ptr
}

; Function Attrs: mustprogress nounwind uwtable
define linkonce_odr dso_local void @_ZN5eastl6vectorIN2EA8UnitTest14TestCollection8TestInfoENS_9allocatorEE6rbeginEv(ptr noalias sret(%"class.eastl::reverse_iterator") align 8 %agg.result, ptr noundef nonnull align 8 dereferenceable(24) %this) #1 comdat align 2 personality ptr @__gxx_personality_v0 {
entry:
  %result.ptr = alloca ptr, align 8
  %this.addr = alloca ptr, align 8
  store ptr %agg.result, ptr %result.ptr, align 8
  store ptr %this, ptr %this.addr, align 8
  %this1 = load ptr, ptr %this.addr, align 8
  %mpEnd = getelementptr inbounds %"struct.eastl::VectorBase", ptr %this1, i32 0, i32 1
  %0 = load ptr, ptr %mpEnd, align 8
  invoke void @_ZN5eastl16reverse_iteratorIPN2EA8UnitTest14TestCollection8TestInfoEEC2ES5_(ptr noundef nonnull align 8 dereferenceable(8) %agg.result, ptr noundef %0)
          to label %invoke.cont unwind label %terminate.lpad

invoke.cont:                                      ; preds = %entry
  ret void

terminate.lpad:                                   ; preds = %entry
  %1 = landingpad { ptr, i32 }
          catch ptr null
  %2 = extractvalue { ptr, i32 } %1, 0
  call void @__clang_call_terminate(ptr %2) #17
  unreachable
}

; Function Attrs: mustprogress nounwind uwtable
define linkonce_odr dso_local noundef zeroext i1 @_ZNK5eastl6vectorIN2EA8UnitTest14TestCollection8TestInfoENS_9allocatorEE5emptyEv(ptr noundef nonnull align 8 dereferenceable(24) %this) #1 comdat align 2 {
entry:
  %this.addr = alloca ptr, align 8
  store ptr %this, ptr %this.addr, align 8
  %this1 = load ptr, ptr %this.addr, align 8
  %mpBegin = getelementptr inbounds %"struct.eastl::VectorBase", ptr %this1, i32 0, i32 0
  %0 = load ptr, ptr %mpBegin, align 8
  %mpEnd = getelementptr inbounds %"struct.eastl::VectorBase", ptr %this1, i32 0, i32 1
  %1 = load ptr, ptr %mpEnd, align 8
  %cmp = icmp eq ptr %0, %1
  ret i1 %cmp
}

; Function Attrs: mustprogress nounwind uwtable
define dso_local void @_ZN2EA8UnitTest14TestCollectionD2Ev(ptr noundef nonnull align 8 dereferenceable(32) %this) unnamed_addr #1 align 2 personality ptr @__gxx_personality_v0 {
entry:
  %this.addr = alloca ptr, align 8
  %ref.tmp = alloca %"class.eastl::reverse_iterator", align 8
  store ptr %this, ptr %this.addr, align 8
  %this1 = load ptr, ptr %this.addr, align 8
  store ptr getelementptr inbounds ({ [10 x ptr] }, ptr @_ZTVN2EA8UnitTest14TestCollectionE, i32 0, i32 0, i32 2), ptr %this1, align 8
  br label %while.cond

while.cond:                                       ; preds = %invoke.cont4, %entry
  %mTests = getelementptr inbounds %"class.EA::UnitTest::TestCollection", ptr %this1, i32 0, i32 1
  %call = call noundef zeroext i1 @_ZNK5eastl6vectorIN2EA8UnitTest14TestCollection8TestInfoENS_9allocatorEE5emptyEv(ptr noundef nonnull align 8 dereferenceable(24) %mTests) #13
  %lnot = xor i1 %call, true
  br i1 %lnot, label %while.body, label %while.end

while.body:                                       ; preds = %while.cond
  %mTests2 = getelementptr inbounds %"class.EA::UnitTest::TestCollection", ptr %this1, i32 0, i32 1
  call void @_ZN5eastl6vectorIN2EA8UnitTest14TestCollection8TestInfoENS_9allocatorEE6rbeginEv(ptr sret(%"class.eastl::reverse_iterator") align 8 %ref.tmp, ptr noundef nonnull align 8 dereferenceable(24) %mTests2) #13
  %call3 = invoke noundef nonnull align 8 dereferenceable(16) ptr @_ZNK5eastl16reverse_iteratorIPN2EA8UnitTest14TestCollection8TestInfoEEdeEv(ptr noundef nonnull align 8 dereferenceable(8) %ref.tmp)
          to label %invoke.cont unwind label %terminate.lpad

invoke.cont:                                      ; preds = %while.body
  %mpTest = getelementptr inbounds %"struct.EA::UnitTest::TestCollection::TestInfo", ptr %call3, i32 0, i32 0
  %0 = load ptr, ptr %mpTest, align 8
  %vtable = load ptr, ptr %this1, align 8
  %vfn = getelementptr inbounds ptr, ptr %vtable, i64 5
  %1 = load ptr, ptr %vfn, align 8
  %call5 = invoke noundef zeroext i1 %1(ptr noundef nonnull align 8 dereferenceable(32) %this1, ptr noundef %0, i1 noundef zeroext true)
          to label %invoke.cont4 unwind label %terminate.lpad

invoke.cont4:                                     ; preds = %invoke.cont
  br label %while.cond, !llvm.loop !8

while.end:                                        ; preds = %while.cond
  %mTests6 = getelementptr inbounds %"class.EA::UnitTest::TestCollection", ptr %this1, i32 0, i32 1
  call void @_ZN5eastl6vectorIN2EA8UnitTest14TestCollection8TestInfoENS_9allocatorEED2Ev(ptr noundef nonnull align 8 dereferenceable(24) %mTests6) #13
  ret void

terminate.lpad:                                   ; preds = %invoke.cont, %while.body
  %2 = landingpad { ptr, i32 }
          catch ptr null
  %3 = extractvalue { ptr, i32 } %2, 0
  call void @__clang_call_terminate(ptr %3) #17
  unreachable
}