; Function Attrs: mustprogress nounwind uwtable
define dso_local void @_ZN2EA8UnitTest14TestCollectionD2Ev(ptr noundef nonnull align 8 dereferenceable(32) %this) unnamed_addr #7 align 2 personality ptr @__gxx_personality_v0 {
entry:
  store ptr getelementptr inbounds ({ [10 x ptr] }, ptr @_ZTVN2EA8UnitTest14TestCollectionE, i64 0, i32 0, i64 2), ptr %this, align 8
  %mTests = getelementptr inbounds i8, ptr %this, i64 8
  %mpEnd.i = getelementptr inbounds i8, ptr %this, i64 16
  br label %while.cond

while.cond:                                       ; preds = %while.body, %entry
  %0 = load ptr, ptr %mTests, align 8
  %1 = load ptr, ptr %mpEnd.i, align 8
  %cmp.i = icmp eq ptr %0, %1
  br i1 %cmp.i, label %while.end, label %while.body

while.body:                                       ; preds = %while.cond
  %incdec.ptr.i = getelementptr inbounds i8, ptr %1, i64 -16
  %2 = load ptr, ptr %incdec.ptr.i, align 8
  %vtable = load ptr, ptr %this, align 8
  %vfn = getelementptr inbounds i8, ptr %vtable, i64 40
  %3 = load ptr, ptr %vfn, align 8
  %call5 = invoke noundef zeroext i1 %3(ptr noundef nonnull align 8 dereferenceable(32) %this, ptr noundef %2, i1 noundef zeroext true)
          to label %while.cond unwind label %terminate.lpad, !llvm.loop !9

while.end:                                        ; preds = %while.cond
  %tobool.not.i.i = icmp eq ptr %0, null
  br i1 %tobool.not.i.i, label %_ZN5eastl6vectorIN2EA8UnitTest14TestCollection8TestInfoENS_9allocatorEED2Ev.exit, label %_ZN5eastl9allocator10deallocateEPvm.exit.i.i

_ZN5eastl9allocator10deallocateEPvm.exit.i.i:     ; preds = %while.end
  tail call void @_ZdaPv(ptr noundef nonnull %0) #31
  br label %_ZN5eastl6vectorIN2EA8UnitTest14TestCollection8TestInfoENS_9allocatorEED2Ev.exit

_ZN5eastl6vectorIN2EA8UnitTest14TestCollection8TestInfoENS_9allocatorEED2Ev.exit: ; preds = %while.end, %_ZN5eastl9allocator10deallocateEPvm.exit.i.i
  ret void

terminate.lpad:                                   ; preds = %while.body
  %4 = landingpad { ptr, i32 }
          catch ptr null
  %5 = extractvalue { ptr, i32 } %4, 0
  tail call void @__clang_call_terminate(ptr %5) #34
  unreachable
}